target datalayout = "e-m:e-p270:32:32-p271:32:32-p272:64:64-i64:64-i128:128-f80:128-n8:16:32:64-S128"
target triple = "x86_64-pc-linux-gnu"

%struct.curl_trc_feat = type { ptr, i32 }
%struct.connectdata = type { %struct.Curl_llist_node, ptr, ptr, i64, ptr, i64, ptr, ptr, %struct.hostname, ptr, ptr, %struct.hostname, %struct.proxy_info, %struct.proxy_info, %struct.ip_quadruple, %struct.ip_quadruple, ptr, ptr, ptr, ptr, ptr, %struct.curltime, %struct.curltime, %struct.curltime, [2 x i32], [2 x ptr], [2 x ptr], [2 x ptr], %struct.anon, %struct.easy_pollset, %struct.ssl_primary_config, %struct.ssl_primary_config, %struct.ConnectBits, ptr, ptr, %struct.curltime, i32, i32, %struct.Curl_llist, i32, i32, %struct.ntlmdata, %struct.ntlmdata, %union.anon.1, ptr, i16, i32, i32, i32, i32, i16, i16, i8, i8, i8, i8, i8, i8, i8 }
%struct.Curl_llist_node = type { ptr, ptr, ptr, ptr }
%struct.hostname = type { ptr, ptr, ptr, ptr }
%struct.proxy_info = type { %struct.hostname, i32, i8, ptr, ptr }
%struct.ip_quadruple = type { [46 x i8], [46 x i8], i32, i32 }
%struct.anon = type { [2 x %struct.curltime], i32 }
%struct.easy_pollset = type { [5 x i32], i32, [5 x i8] }
%struct.ssl_primary_config = type { ptr, ptr, ptr, ptr, ptr, ptr, ptr, ptr, ptr, ptr, ptr, ptr, i8, i32, i8, i8 }
%struct.ConnectBits = type { i64 }
%struct.curltime = type { i64, i32 }
%struct.Curl_llist = type { ptr, ptr, ptr, i64 }
%struct.ntlmdata = type { i32, [8 x i8], i32, ptr }
%union.anon.1 = type { %struct.ftp_conn }
%struct.ftp_conn = type { %struct.pingpong, ptr, ptr, ptr, ptr, ptr, ptr, ptr, i8, i64, ptr, i64, i32, i32, i32, i32, i32, i16, i8, i8, i8, i8, i8 }
%struct.pingpong = type { i64, i8, ptr, i64, i64, %struct.curltime, i64, %struct.dynbuf, %struct.dynbuf, i64, i64, ptr, ptr }
%struct.dynbuf = type { ptr, i64, i64, i64 }
%struct.Curl_easy = type { i32, i64, i64, ptr, %struct.Curl_llist_node, %struct.Curl_llist_node, i32, i32, %struct.Curl_message, %struct.easy_pollset, %struct.Names, ptr, ptr, ptr, %struct.SingleRequest, %struct.UserDefined, ptr, ptr, %struct.Progress, %struct.UrlState, ptr, %struct.PureInfo, %struct.curl_tlssessioninfo }
%struct.Curl_message = type { %struct.Curl_llist_node, %struct.CURLMsg }
%struct.CURLMsg = type { i32, ptr, %union.anon }
%union.anon = type { ptr }
%struct.Names = type { ptr, i32 }
%struct.SingleRequest = type <{ i64, i64, i64, i64, %struct.curltime, i32, i32, i32, i32, i64, i32, i32, i32, i32, ptr, ptr, %struct.bufq, i64, i64, ptr, ptr, %union.anon.0, ptr, i8, i32, [3 x i8] }>
%struct.bufq = type { ptr, ptr, ptr, ptr, i64, i64, i64, i32 }
%union.anon.0 = type { ptr }
%struct.UserDefined = type <{ ptr, ptr, ptr, ptr, ptr, ptr, i16, [6 x i8], i64, i64, i64, ptr, ptr, i64, i16, i16, [4 x i8], ptr, ptr, ptr, ptr, ptr, ptr, ptr, ptr, ptr, ptr, ptr, ptr, ptr, ptr, ptr, ptr, ptr, ptr, ptr, ptr, ptr, ptr, ptr, i32, i32, i32, i32, i32, [4 x i8], i64, i64, i64, i64, i64, i64, i64, i64, ptr, ptr, %struct.curl_mimepart, ptr, ptr, i64, i8, i8, i8, [5 x i8], %struct.ssl_config_data, %struct.ssl_config_data, ptr, i16, i8, i8, [4 x i8], %struct.ssl_general_config, i32, i32, i32, [4 x i8], ptr, ptr, i8, [7 x i8], i64, i8, i8, i8, i8, i32, ptr, ptr, ptr, i8, i8, [2 x i8], i32, [63 x ptr], [8 x ptr], i32, i32, i32, [4 x i8], ptr, ptr, ptr, ptr, ptr, i8, [3 x i8], i32, i32, i32, i64, %struct.Curl_data_priority, ptr, ptr, i64, ptr, i64, ptr, ptr, ptr, i8, [3 x i8], i32, i8, i8, i64, [6 x i8] }>
%struct.curl_mimepart = type { ptr, ptr, i32, i32, ptr, ptr, ptr, ptr, ptr, ptr, ptr, ptr, ptr, ptr, ptr, i64, %struct.mime_state, ptr, %struct.mime_encoder_state, i64 }
%struct.mime_state = type { i32, ptr, i64 }
%struct.mime_encoder_state = type { i64, i64, i64, [256 x i8] }
%struct.ssl_config_data = type { %struct.ssl_primary_config, i64, ptr, ptr, ptr, ptr, ptr, ptr, ptr, i16 }
%struct.ssl_general_config = type { i64, i32 }
%struct.Curl_data_priority = type { ptr, ptr, i32, i8 }
%struct.Progress = type { i64, %struct.pgrs_dir, %struct.pgrs_dir, i64, i64, i32, i32, i64, i64, i64, i64, i64, i64, i64, i64, i64, %struct.curltime, %struct.curltime, %struct.curltime, %struct.curltime, [6 x i64], [6 x %struct.curltime], i32, i8 }
%struct.pgrs_dir = type { i64, i64, i64, %struct.pgrs_measure }
%struct.pgrs_measure = type { %struct.curltime, i64 }
%struct.UrlState = type { %struct.curltime, i64, i64, %struct.dynbuf, ptr, i64, ptr, i32, i32, i32, ptr, i64, i32, i64, i32, ptr, %struct.digestdata, %struct.digestdata, %struct.auth, %struct.auth, %struct.Curl_async, ptr, %struct.curltime, %struct.Curl_tree, %struct.Curl_llist, [15 x %struct.time_node], ptr, ptr, i64, i64, %struct.Curl_data_priority, ptr, ptr, ptr, %struct.urlpieces, ptr, ptr, ptr, ptr, ptr, i64, %struct.dynbuf, %struct.Curl_llist, [2 x %struct.curl_header], ptr, i32, ptr, ptr, %struct.store_netrc, %struct.dynamically_allocated_data, i8, i8, i8, i8, i32 }
%struct.digestdata = type { ptr, ptr, ptr, ptr, ptr, ptr, i32, i8, i8 }
%struct.auth = type { i64, i64, i64, i8 }
%struct.Curl_async = type { ptr, ptr, ptr, ptr, i32, i32, i8 }
%struct.Curl_tree = type { ptr, ptr, ptr, ptr, %struct.curltime, ptr }
%struct.time_node = type { %struct.Curl_llist_node, %struct.curltime, i32 }
%struct.urlpieces = type { ptr, ptr, ptr, ptr, ptr, ptr, ptr, ptr }
%struct.curl_header = type { ptr, ptr, i64, i64, i32, ptr }
%struct.store_netrc = type { %struct.dynbuf, ptr, i8 }
%struct.dynamically_allocated_data = type { ptr, ptr, ptr, ptr, ptr, ptr, ptr, ptr, ptr, ptr, ptr, ptr, ptr }
%struct.PureInfo = type { i32, i32, i32, i64, i64, i64, i64, i64, ptr, ptr, i64, i32, %struct.ip_quadruple, i32, ptr, i32, %struct.curl_certinfo, i32, i8 }
%struct.curl_certinfo = type { i32, ptr }
%struct.curl_tlssessioninfo = type { i32, ptr }
%struct.FTP = type { ptr, ptr, i32, i64 }

@Curl_trc_feat_ftp = external global %struct.curl_trc_feat, align 8
@.str.8 = private unnamed_addr constant [4 x i8] c"???\00", align 1
@Curl_cfree = external global ptr, align 8
@Curl_cstrdup = external global ptr, align 8
@Curl_ccalloc = external global ptr, align 8
@.str.177 = private unnamed_addr constant [7 x i8] c";type=\00", align 1
@.str.178 = private unnamed_addr constant [28 x i8] c"[%s] setup connection -> %d\00", align 1

; Function Attrs: nounwind uwtable
define internal i32 @ftp_setup_connection(ptr noundef %0, ptr noundef %1) #0 {
  %3 = alloca i32, align 4
  %4 = alloca ptr, align 8
  %5 = alloca ptr, align 8
  %6 = alloca ptr, align 8
  %7 = alloca ptr, align 8
  %8 = alloca i32, align 4
  %9 = alloca ptr, align 8
  %10 = alloca i32, align 4
  %11 = alloca i8, align 1
  store ptr %0, ptr %4, align 8, !tbaa !4
  store ptr %1, ptr %5, align 8, !tbaa !9
  call void @llvm.lifetime.start.p0(i64 8, ptr %6) #9
  call void @llvm.lifetime.start.p0(i64 8, ptr %7) #9
  call void @llvm.lifetime.start.p0(i64 4, ptr %8) #9
  store i32 0, ptr %8, align 4, !tbaa !11
  call void @llvm.lifetime.start.p0(i64 8, ptr %9) #9
  %12 = load ptr, ptr %5, align 8, !tbaa !9
  %13 = getelementptr inbounds nuw %struct.connectdata, ptr %12, i32 0, i32 43
  store ptr %13, ptr %9, align 8, !tbaa !13
  %14 = load ptr, ptr @Curl_ccalloc, align 8, !tbaa !15
  %15 = call ptr %14(i64 noundef 1, i64 noundef 32)
  store ptr %15, ptr %7, align 8, !tbaa !16
  %16 = load ptr, ptr %7, align 8, !tbaa !16
  %17 = icmp ne ptr %16, null
  br i1 %17, label %19, label %18

18:                                               ; preds = %2
  store i32 27, ptr %3, align 4
  store i32 1, ptr %10, align 4
  br label %205

19:                                               ; preds = %2
  %20 = load ptr, ptr %4, align 8, !tbaa !4
  %21 = getelementptr inbounds nuw %struct.Curl_easy, ptr %20, i32 0, i32 15
  %22 = getelementptr inbounds nuw %struct.UserDefined, ptr %21, i32 0, i32 93
  %23 = getelementptr inbounds [63 x ptr], ptr %22, i64 0, i64 34
  %24 = load ptr, ptr %23, align 8, !tbaa !18
  %25 = icmp ne ptr %24, null
  br i1 %25, label %26, label %44

26:                                               ; preds = %19
  %27 = load ptr, ptr @Curl_cstrdup, align 8, !tbaa !15
  %28 = load ptr, ptr %4, align 8, !tbaa !4
  %29 = getelementptr inbounds nuw %struct.Curl_easy, ptr %28, i32 0, i32 15
  %30 = getelementptr inbounds nuw %struct.UserDefined, ptr %29, i32 0, i32 93
  %31 = getelementptr inbounds [63 x ptr], ptr %30, i64 0, i64 34
  %32 = load ptr, ptr %31, align 8, !tbaa !18
  %33 = call ptr %27(ptr noundef %32)
  %34 = load ptr, ptr %9, align 8, !tbaa !13
  %35 = getelementptr inbounds nuw %struct.ftp_conn, ptr %34, i32 0, i32 1
  store ptr %33, ptr %35, align 8, !tbaa !20
  %36 = load ptr, ptr %9, align 8, !tbaa !13
  %37 = getelementptr inbounds nuw %struct.ftp_conn, ptr %36, i32 0, i32 1
  %38 = load ptr, ptr %37, align 8, !tbaa !20
  %39 = icmp ne ptr %38, null
  br i1 %39, label %43, label %40

40:                                               ; preds = %26
  %41 = load ptr, ptr @Curl_cfree, align 8, !tbaa !15
  %42 = load ptr, ptr %7, align 8, !tbaa !16
  call void %41(ptr noundef %42)
  store i32 27, ptr %3, align 4
  store i32 1, ptr %10, align 4
  br label %205

43:                                               ; preds = %26
  br label %44

44:                                               ; preds = %43, %19
  %45 = load ptr, ptr %4, align 8, !tbaa !4
  %46 = getelementptr inbounds nuw %struct.Curl_easy, ptr %45, i32 0, i32 15
  %47 = getelementptr inbounds nuw %struct.UserDefined, ptr %46, i32 0, i32 93
  %48 = getelementptr inbounds [63 x ptr], ptr %47, i64 0, i64 35
  %49 = load ptr, ptr %48, align 8, !tbaa !18
  %50 = icmp ne ptr %49, null
  br i1 %50, label %51, label %78

51:                                               ; preds = %44
  %52 = load ptr, ptr @Curl_cstrdup, align 8, !tbaa !15
  %53 = load ptr, ptr %4, align 8, !tbaa !4
  %54 = getelementptr inbounds nuw %struct.Curl_easy, ptr %53, i32 0, i32 15
  %55 = getelementptr inbounds nuw %struct.UserDefined, ptr %54, i32 0, i32 93
  %56 = getelementptr inbounds [63 x ptr], ptr %55, i64 0, i64 35
  %57 = load ptr, ptr %56, align 8, !tbaa !18
  %58 = call ptr %52(ptr noundef %57)
  %59 = load ptr, ptr %9, align 8, !tbaa !13
  %60 = getelementptr inbounds nuw %struct.ftp_conn, ptr %59, i32 0, i32 2
  store ptr %58, ptr %60, align 8, !tbaa !29
  %61 = load ptr, ptr %9, align 8, !tbaa !13
  %62 = getelementptr inbounds nuw %struct.ftp_conn, ptr %61, i32 0, i32 2
  %63 = load ptr, ptr %62, align 8, !tbaa !29
  %64 = icmp ne ptr %63, null
  br i1 %64, label %77, label %65

65:                                               ; preds = %51
  br label %66

66:                                               ; preds = %65
  %67 = load ptr, ptr @Curl_cfree, align 8, !tbaa !15
  %68 = load ptr, ptr %9, align 8, !tbaa !13
  %69 = getelementptr inbounds nuw %struct.ftp_conn, ptr %68, i32 0, i32 1
  %70 = load ptr, ptr %69, align 8, !tbaa !20
  call void %67(ptr noundef %70)
  %71 = load ptr, ptr %9, align 8, !tbaa !13
  %72 = getelementptr inbounds nuw %struct.ftp_conn, ptr %71, i32 0, i32 1
  store ptr null, ptr %72, align 8, !tbaa !20
  br label %73

73:                                               ; preds = %66
  br label %74

74:                                               ; preds = %73
  %75 = load ptr, ptr @Curl_cfree, align 8, !tbaa !15
  %76 = load ptr, ptr %7, align 8, !tbaa !16
  call void %75(ptr noundef %76)
  store i32 27, ptr %3, align 4
  store i32 1, ptr %10, align 4
  br label %205

77:                                               ; preds = %51
  br label %78

78:                                               ; preds = %77, %44
  %79 = load ptr, ptr %7, align 8, !tbaa !16
  %80 = load ptr, ptr %4, align 8, !tbaa !4
  %81 = getelementptr inbounds nuw %struct.Curl_easy, ptr %80, i32 0, i32 14
  %82 = getelementptr inbounds nuw %struct.SingleRequest, ptr %81, i32 0, i32 21
  store ptr %79, ptr %82, align 8, !tbaa !30
  %83 = load ptr, ptr %4, align 8, !tbaa !4
  %84 = getelementptr inbounds nuw %struct.Curl_easy, ptr %83, i32 0, i32 19
  %85 = getelementptr inbounds nuw %struct.UrlState, ptr %84, i32 0, i32 34
  %86 = getelementptr inbounds nuw %struct.urlpieces, ptr %85, i32 0, i32 6
  %87 = load ptr, ptr %86, align 8, !tbaa !31
  %88 = getelementptr inbounds i8, ptr %87, i64 1
  %89 = load ptr, ptr %7, align 8, !tbaa !16
  %90 = getelementptr inbounds nuw %struct.FTP, ptr %89, i32 0, i32 0
  store ptr %88, ptr %90, align 8, !tbaa !93
  %91 = load ptr, ptr %7, align 8, !tbaa !16
  %92 = getelementptr inbounds nuw %struct.FTP, ptr %91, i32 0, i32 0
  %93 = load ptr, ptr %92, align 8, !tbaa !93
  %94 = call ptr @strstr(ptr noundef %93, ptr noundef @.str.177) #10
  store ptr %94, ptr %6, align 8, !tbaa !18
  %95 = load ptr, ptr %6, align 8, !tbaa !18
  %96 = icmp ne ptr %95, null
  br i1 %96, label %103, label %97

97:                                               ; preds = %78
  %98 = load ptr, ptr %5, align 8, !tbaa !9
  %99 = getelementptr inbounds nuw %struct.connectdata, ptr %98, i32 0, i32 8
  %100 = getelementptr inbounds nuw %struct.hostname, ptr %99, i32 0, i32 0
  %101 = load ptr, ptr %100, align 8, !tbaa !95
  %102 = call ptr @strstr(ptr noundef %101, ptr noundef @.str.177) #10
  store ptr %102, ptr %6, align 8, !tbaa !18
  br label %103

103:                                              ; preds = %97, %78
  %104 = load ptr, ptr %6, align 8, !tbaa !18
  %105 = icmp ne ptr %104, null
  br i1 %105, label %106, label %137

106:                                              ; preds = %103
  call void @llvm.lifetime.start.p0(i64 1, ptr %11) #9
  %107 = load ptr, ptr %6, align 8, !tbaa !18
  store i8 0, ptr %107, align 1, !tbaa !30
  %108 = load ptr, ptr %6, align 8, !tbaa !18
  %109 = getelementptr inbounds i8, ptr %108, i64 6
  %110 = load i8, ptr %109, align 1, !tbaa !30
  %111 = call signext i8 @Curl_raw_toupper(i8 noundef signext %110)
  store i8 %111, ptr %11, align 1, !tbaa !30
  %112 = load i8, ptr %11, align 1, !tbaa !30
  %113 = sext i8 %112 to i32
  switch i32 %113, label %129 [
    i32 65, label %114
    i32 68, label %121
    i32 73, label %128
  ]

114:                                              ; preds = %106
  %115 = load ptr, ptr %4, align 8, !tbaa !4
  %116 = getelementptr inbounds nuw %struct.Curl_easy, ptr %115, i32 0, i32 19
  %117 = getelementptr inbounds nuw %struct.UrlState, ptr %116, i32 0, i32 54
  %118 = load i32, ptr %117, align 4
  %119 = and i32 %118, -16385
  %120 = or i32 %119, 16384
  store i32 %120, ptr %117, align 4
  br label %136

121:                                              ; preds = %106
  %122 = load ptr, ptr %4, align 8, !tbaa !4
  %123 = getelementptr inbounds nuw %struct.Curl_easy, ptr %122, i32 0, i32 19
  %124 = getelementptr inbounds nuw %struct.UrlState, ptr %123, i32 0, i32 54
  %125 = load i32, ptr %124, align 4
  %126 = and i32 %125, -32769
  %127 = or i32 %126, 32768
  store i32 %127, ptr %124, align 4
  br label %136

128:                                              ; preds = %106
  br label %129

129:                                              ; preds = %106, %128
  %130 = load ptr, ptr %4, align 8, !tbaa !4
  %131 = getelementptr inbounds nuw %struct.Curl_easy, ptr %130, i32 0, i32 19
  %132 = getelementptr inbounds nuw %struct.UrlState, ptr %131, i32 0, i32 54
  %133 = load i32, ptr %132, align 4
  %134 = and i32 %133, -16385
  %135 = or i32 %134, 0
  store i32 %135, ptr %132, align 4
  br label %136

136:                                              ; preds = %129, %121, %114
  call void @llvm.lifetime.end.p0(i64 1, ptr %11) #9
  br label %137

137:                                              ; preds = %136, %103
  %138 = load ptr, ptr %7, align 8, !tbaa !16
  %139 = getelementptr inbounds nuw %struct.FTP, ptr %138, i32 0, i32 2
  store i32 0, ptr %139, align 8, !tbaa !104
  %140 = load ptr, ptr %7, align 8, !tbaa !16
  %141 = getelementptr inbounds nuw %struct.FTP, ptr %140, i32 0, i32 3
  store i64 0, ptr %141, align 8, !tbaa !105
  %142 = load ptr, ptr %9, align 8, !tbaa !13
  %143 = getelementptr inbounds nuw %struct.ftp_conn, ptr %142, i32 0, i32 11
  store i64 -1, ptr %143, align 8, !tbaa !106
  %144 = load ptr, ptr %4, align 8, !tbaa !4
  %145 = getelementptr inbounds nuw %struct.Curl_easy, ptr %144, i32 0, i32 15
  %146 = getelementptr inbounds nuw %struct.UserDefined, ptr %145, i32 0, i32 122
  %147 = load i8, ptr %146, align 8, !tbaa !107
  %148 = load ptr, ptr %9, align 8, !tbaa !13
  %149 = getelementptr inbounds nuw %struct.ftp_conn, ptr %148, i32 0, i32 20
  store i8 %147, ptr %149, align 8, !tbaa !108
  %150 = load ptr, ptr %4, align 8, !tbaa !4
  %151 = getelementptr inbounds nuw %struct.Curl_easy, ptr %150, i32 0, i32 15
  %152 = getelementptr inbounds nuw %struct.UserDefined, ptr %151, i32 0, i32 83
  %153 = load i8, ptr %152, align 2, !tbaa !109
  %154 = load ptr, ptr %9, align 8, !tbaa !13
  %155 = getelementptr inbounds nuw %struct.ftp_conn, ptr %154, i32 0, i32 21
  store i8 %153, ptr %155, align 1, !tbaa !110
  br label %156

156:                                              ; preds = %137
  %157 = load ptr, ptr %4, align 8, !tbaa !4
  %158 = icmp ne ptr %157, null
  br i1 %158, label %159, label %201

159:                                              ; preds = %156
  %160 = load ptr, ptr %4, align 8, !tbaa !4
  %161 = getelementptr inbounds nuw %struct.Curl_easy, ptr %160, i32 0, i32 15
  %162 = getelementptr inbounds nuw %struct.UserDefined, ptr %161, i32 0, i32 124
  %163 = load i64, ptr %162, align 2
  %164 = lshr i64 %163, 27
  %165 = and i64 %164, 1
  %166 = trunc i64 %165 to i32
  %167 = icmp ne i32 %166, 0
  br i1 %167, label %168, label %201

168:                                              ; preds = %159
  %169 = load ptr, ptr %4, align 8, !tbaa !4
  %170 = getelementptr inbounds nuw %struct.Curl_easy, ptr %169, i32 0, i32 19
  %171 = getelementptr inbounds nuw %struct.UrlState, ptr %170, i32 0, i32 47
  %172 = load ptr, ptr %171, align 8, !tbaa !111
  %173 = icmp ne ptr %172, null
  br i1 %173, label %174, label %182

174:                                              ; preds = %168
  %175 = load ptr, ptr %4, align 8, !tbaa !4
  %176 = getelementptr inbounds nuw %struct.Curl_easy, ptr %175, i32 0, i32 19
  %177 = getelementptr inbounds nuw %struct.UrlState, ptr %176, i32 0, i32 47
  %178 = load ptr, ptr %177, align 8, !tbaa !111
  %179 = getelementptr inbounds nuw %struct.curl_trc_feat, ptr %178, i32 0, i32 1
  %180 = load i32, ptr %179, align 8, !tbaa !112
  %181 = icmp sge i32 %180, 1
  br i1 %181, label %182, label %201

182:                                              ; preds = %174, %168
  %183 = load i32, ptr getelementptr inbounds nuw (%struct.curl_trc_feat, ptr @Curl_trc_feat_ftp, i32 0, i32 1), align 8, !tbaa !112
  %184 = icmp sge i32 %183, 1
  br i1 %184, label %185, label %201

185:                                              ; preds = %182
  %186 = load ptr, ptr %4, align 8, !tbaa !4
  %187 = load ptr, ptr %5, align 8, !tbaa !9
  %188 = icmp ne ptr %187, null
  br i1 %188, label %189, label %197

189:                                              ; preds = %185
  %190 = load ptr, ptr %5, align 8, !tbaa !9
  %191 = getelementptr inbounds nuw %struct.connectdata, ptr %190, i32 0, i32 43
  %192 = getelementptr inbounds nuw %struct.ftp_conn, ptr %191, i32 0, i32 18
  %193 = load i8, ptr %192, align 2, !tbaa !30
  %194 = zext i8 %193 to i64
  %195 = getelementptr inbounds nuw [35 x ptr], ptr @ftp_state_names, i64 0, i64 %194
  %196 = load ptr, ptr %195, align 8, !tbaa !18
  br label %198

197:                                              ; preds = %185
  br label %198

198:                                              ; preds = %197, %189
  %199 = phi ptr [ %196, %189 ], [ @.str.8, %197 ]
  %200 = load i32, ptr %8, align 4, !tbaa !11
  call void (ptr, ptr, ...) @Curl_trc_ftp(ptr noundef %186, ptr noundef @.str.178, ptr noundef %199, i32 noundef %200)
  br label %201

201:                                              ; preds = %198, %182, %174, %159, %156
  br label %202

202:                                              ; preds = %201
  br label %203

203:                                              ; preds = %202
  %204 = load i32, ptr %8, align 4, !tbaa !11
  store i32 %204, ptr %3, align 4
  store i32 1, ptr %10, align 4
  br label %205

205:                                              ; preds = %203, %74, %40, %18
  call void @llvm.lifetime.end.p0(i64 8, ptr %9) #9
  call void @llvm.lifetime.end.p0(i64 4, ptr %8) #9
  call void @llvm.lifetime.end.p0(i64 8, ptr %7) #9
  call void @llvm.lifetime.end.p0(i64 8, ptr %6) #9
  %206 = load i32, ptr %3, align 4
  ret i32 %206
}